target datalayout = "e-m:e-p270:32:32-p271:32:32-p272:64:64-i64:64-i128:128-f80:128-n8:16:32:64-S128"
target triple = "x86_64-pc-linux-gnu"

%"struct.url::Component" = type { i32, i32 }

; Function Attrs: mustprogress nounwind uwtable
define linkonce_odr void @_ZN3url9ComponentC2Eii(ptr noundef nonnull align 4 dereferenceable(8) %0, i32 noundef %1, i32 noundef %2) unnamed_addr #1 comdat align 2 {
  %4 = alloca ptr, align 8
  %5 = alloca i32, align 4
  %6 = alloca i32, align 4
  store ptr %0, ptr %4, align 8, !tbaa !12
  store i32 %1, ptr %5, align 4, !tbaa !17
  store i32 %2, ptr %6, align 4, !tbaa !17
  %7 = load ptr, ptr %4, align 8
  %8 = getelementptr inbounds nuw %"struct.url::Component", ptr %7, i32 0, i32 0
  %9 = load i32, ptr %5, align 4, !tbaa !17
  store i32 %9, ptr %8, align 4, !tbaa !14
  %10 = getelementptr inbounds nuw %"struct.url::Component", ptr %7, i32 0, i32 1
  %11 = load i32, ptr %6, align 4, !tbaa !17
  store i32 %11, ptr %10, align 4, !tbaa !15
  ret void
}

; Function Attrs: inlinehint mustprogress uwtable
define linkonce_odr i64 @_ZN3url9MakeRangeEii(i32 noundef %0, i32 noundef %1) #7 comdat {
  %3 = alloca %"struct.url::Component", align 4
  %4 = alloca i32, align 4
  %5 = alloca i32, align 4
  store i32 %0, ptr %4, align 4, !tbaa !17
  store i32 %1, ptr %5, align 4, !tbaa !17
  %6 = load i32, ptr %4, align 4, !tbaa !17
  %7 = load i32, ptr %5, align 4, !tbaa !17
  %8 = load i32, ptr %4, align 4, !tbaa !17
  %9 = sub nsw i32 %7, %8
  call void @_ZN3url9ComponentC2Eii(ptr noundef nonnull align 4 dereferenceable(8) %3, i32 noundef %6, i32 noundef %9)
  %10 = load i64, ptr %3, align 4
  ret i64 %10
}

; Function Attrs: mustprogress nounwind uwtable
define linkonce_odr noundef i32 @_ZNK3url9Component3endEv(ptr noundef nonnull align 4 dereferenceable(8) %0) #1 comdat align 2 {
  %2 = alloca ptr, align 8
  store ptr %0, ptr %2, align 8, !tbaa !12
  %3 = load ptr, ptr %2, align 8
  %4 = getelementptr inbounds nuw %"struct.url::Component", ptr %3, i32 0, i32 0
  %5 = load i32, ptr %4, align 4, !tbaa !14
  %6 = getelementptr inbounds nuw %"struct.url::Component", ptr %3, i32 0, i32 1
  %7 = load i32, ptr %6, align 4, !tbaa !15
  %8 = add nsw i32 %5, %7
  ret i32 %8
}

; Function Attrs: mustprogress nounwind uwtable
define linkonce_odr noundef zeroext i1 @_ZNK3url9Component11is_nonemptyEv(ptr noundef nonnull align 4 dereferenceable(8) %0) #1 comdat align 2 {
  %2 = alloca ptr, align 8
  store ptr %0, ptr %2, align 8, !tbaa !12
  %3 = load ptr, ptr %2, align 8
  %4 = getelementptr inbounds nuw %"struct.url::Component", ptr %3, i32 0, i32 1
  %5 = load i32, ptr %4, align 4, !tbaa !15
  %6 = icmp sgt i32 %5, 0
  ret i1 %6
}

; Function Attrs: mustprogress uwtable
define internal noundef zeroext i1 @_ZN3url12_GLOBAL__N_122DoExtractQueryKeyValueItEEbPKT_PNS_9ComponentES6_S6_(ptr noundef %0, ptr noundef %1, ptr noundef %2, ptr noundef %3) #0 {
  %5 = alloca i1, align 1
  %6 = alloca ptr, align 8
  %7 = alloca ptr, align 8
  %8 = alloca ptr, align 8
  %9 = alloca ptr, align 8
  %10 = alloca i32, align 4
  %11 = alloca i32, align 4
  %12 = alloca i32, align 4
  %13 = alloca %"struct.url::Component", align 4
  store ptr %0, ptr %6, align 8, !tbaa !38
  store ptr %1, ptr %7, align 8, !tbaa !12
  store ptr %2, ptr %8, align 8, !tbaa !12
  store ptr %3, ptr %9, align 8, !tbaa !12
  %14 = load ptr, ptr %7, align 8, !tbaa !12
  %15 = call noundef zeroext i1 @_ZNK3url9Component11is_nonemptyEv(ptr noundef nonnull align 4 dereferenceable(8) %14)
  br i1 %15, label %17, label %16

16:                                               ; preds = %4
  store i1 false, ptr %5, align 1
  br label %122

17:                                               ; preds = %4
  call void @llvm.lifetime.start.p0(i64 4, ptr %10) #13
  %18 = load ptr, ptr %7, align 8, !tbaa !12
  %19 = getelementptr inbounds nuw %"struct.url::Component", ptr %18, i32 0, i32 0
  %20 = load i32, ptr %19, align 4, !tbaa !14
  store i32 %20, ptr %10, align 4, !tbaa !17
  call void @llvm.lifetime.start.p0(i64 4, ptr %11) #13
  %21 = load i32, ptr %10, align 4, !tbaa !17
  store i32 %21, ptr %11, align 4, !tbaa !17
  call void @llvm.lifetime.start.p0(i64 4, ptr %12) #13
  %22 = load ptr, ptr %7, align 8, !tbaa !12
  %23 = call noundef i32 @_ZNK3url9Component3endEv(ptr noundef nonnull align 4 dereferenceable(8) %22)
  store i32 %23, ptr %12, align 4, !tbaa !17
  %24 = load i32, ptr %11, align 4, !tbaa !17
  %25 = load ptr, ptr %8, align 8, !tbaa !12
  %26 = getelementptr inbounds nuw %"struct.url::Component", ptr %25, i32 0, i32 0
  store i32 %24, ptr %26, align 4, !tbaa !14
  br label %27

27:                                               ; preds = %49, %17
  %28 = load i32, ptr %11, align 4, !tbaa !17
  %29 = load i32, ptr %12, align 4, !tbaa !17
  %30 = icmp slt i32 %28, %29
  br i1 %30, label %31, label %47

31:                                               ; preds = %27
  %32 = load ptr, ptr %6, align 8, !tbaa !38
  %33 = load i32, ptr %11, align 4, !tbaa !17
  %34 = sext i32 %33 to i64
  %35 = getelementptr inbounds i16, ptr %32, i64 %34
  %36 = load i16, ptr %35, align 2, !tbaa !40
  %37 = zext i16 %36 to i32
  %38 = icmp ne i32 %37, 38
  br i1 %38, label %39, label %47

39:                                               ; preds = %31
  %40 = load ptr, ptr %6, align 8, !tbaa !38
  %41 = load i32, ptr %11, align 4, !tbaa !17
  %42 = sext i32 %41 to i64
  %43 = getelementptr inbounds i16, ptr %40, i64 %42
  %44 = load i16, ptr %43, align 2, !tbaa !40
  %45 = zext i16 %44 to i32
  %46 = icmp ne i32 %45, 61
  br label %47

47:                                               ; preds = %39, %31, %27
  %48 = phi i1 [ false, %31 ], [ false, %27 ], [ %46, %39 ]
  br i1 %48, label %49, label %52

49:                                               ; preds = %47
  %50 = load i32, ptr %11, align 4, !tbaa !17
  %51 = add nsw i32 %50, 1
  store i32 %51, ptr %11, align 4, !tbaa !17
  br label %27, !llvm.loop !48

52:                                               ; preds = %47
  %53 = load i32, ptr %11, align 4, !tbaa !17
  %54 = load ptr, ptr %8, align 8, !tbaa !12
  %55 = getelementptr inbounds nuw %"struct.url::Component", ptr %54, i32 0, i32 0
  %56 = load i32, ptr %55, align 4, !tbaa !14
  %57 = sub nsw i32 %53, %56
  %58 = load ptr, ptr %8, align 8, !tbaa !12
  %59 = getelementptr inbounds nuw %"struct.url::Component", ptr %58, i32 0, i32 1
  store i32 %57, ptr %59, align 4, !tbaa !15
  %60 = load i32, ptr %11, align 4, !tbaa !17
  %61 = load i32, ptr %12, align 4, !tbaa !17
  %62 = icmp slt i32 %60, %61
  br i1 %62, label %63, label %74

63:                                               ; preds = %52
  %64 = load ptr, ptr %6, align 8, !tbaa !38
  %65 = load i32, ptr %11, align 4, !tbaa !17
  %66 = sext i32 %65 to i64
  %67 = getelementptr inbounds i16, ptr %64, i64 %66
  %68 = load i16, ptr %67, align 2, !tbaa !40
  %69 = zext i16 %68 to i32
  %70 = icmp eq i32 %69, 61
  br i1 %70, label %71, label %74

71:                                               ; preds = %63
  %72 = load i32, ptr %11, align 4, !tbaa !17
  %73 = add nsw i32 %72, 1
  store i32 %73, ptr %11, align 4, !tbaa !17
  br label %74

74:                                               ; preds = %71, %63, %52
  %75 = load i32, ptr %11, align 4, !tbaa !17
  %76 = load ptr, ptr %9, align 8, !tbaa !12
  %77 = getelementptr inbounds nuw %"struct.url::Component", ptr %76, i32 0, i32 0
  store i32 %75, ptr %77, align 4, !tbaa !14
  br label %78

78:                                               ; preds = %92, %74
  %79 = load i32, ptr %11, align 4, !tbaa !17
  %80 = load i32, ptr %12, align 4, !tbaa !17
  %81 = icmp slt i32 %79, %80
  br i1 %81, label %82, label %90

82:                                               ; preds = %78
  %83 = load ptr, ptr %6, align 8, !tbaa !38
  %84 = load i32, ptr %11, align 4, !tbaa !17
  %85 = sext i32 %84 to i64
  %86 = getelementptr inbounds i16, ptr %83, i64 %85
  %87 = load i16, ptr %86, align 2, !tbaa !40
  %88 = zext i16 %87 to i32
  %89 = icmp ne i32 %88, 38
  br label %90

90:                                               ; preds = %82, %78
  %91 = phi i1 [ false, %78 ], [ %89, %82 ]
  br i1 %91, label %92, label %95

92:                                               ; preds = %90
  %93 = load i32, ptr %11, align 4, !tbaa !17
  %94 = add nsw i32 %93, 1
  store i32 %94, ptr %11, align 4, !tbaa !17
  br label %78, !llvm.loop !49

95:                                               ; preds = %90
  %96 = load i32, ptr %11, align 4, !tbaa !17
  %97 = load ptr, ptr %9, align 8, !tbaa !12
  %98 = getelementptr inbounds nuw %"struct.url::Component", ptr %97, i32 0, i32 0
  %99 = load i32, ptr %98, align 4, !tbaa !14
  %100 = sub nsw i32 %96, %99
  %101 = load ptr, ptr %9, align 8, !tbaa !12
  %102 = getelementptr inbounds nuw %"struct.url::Component", ptr %101, i32 0, i32 1
  store i32 %100, ptr %102, align 4, !tbaa !15
  %103 = load i32, ptr %11, align 4, !tbaa !17
  %104 = load i32, ptr %12, align 4, !tbaa !17
  %105 = icmp slt i32 %103, %104
  br i1 %105, label %106, label %117

106:                                              ; preds = %95
  %107 = load ptr, ptr %6, align 8, !tbaa !38
  %108 = load i32, ptr %11, align 4, !tbaa !17
  %109 = sext i32 %108 to i64
  %110 = getelementptr inbounds i16, ptr %107, i64 %109
  %111 = load i16, ptr %110, align 2, !tbaa !40
  %112 = zext i16 %111 to i32
  %113 = icmp eq i32 %112, 38
  br i1 %113, label %114, label %117

114:                                              ; preds = %106
  %115 = load i32, ptr %11, align 4, !tbaa !17
  %116 = add nsw i32 %115, 1
  store i32 %116, ptr %11, align 4, !tbaa !17
  br label %117

117:                                              ; preds = %114, %106, %95
  call void @llvm.lifetime.start.p0(i64 8, ptr %13) #13
  %118 = load i32, ptr %11, align 4, !tbaa !17
  %119 = load i32, ptr %12, align 4, !tbaa !17
  %120 = call i64 @_ZN3url9MakeRangeEii(i32 noundef %118, i32 noundef %119)
  store i64 %120, ptr %13, align 4
  %121 = load ptr, ptr %7, align 8, !tbaa !12
  call void @llvm.memcpy.p0.p0.i64(ptr align 4 %121, ptr align 4 %13, i64 8, i1 false), !tbaa.struct !16
  call void @llvm.lifetime.end.p0(i64 8, ptr %13) #13
  store i1 true, ptr %5, align 1
  call void @llvm.lifetime.end.p0(i64 4, ptr %12) #13
  call void @llvm.lifetime.end.p0(i64 4, ptr %11) #13
  call void @llvm.lifetime.end.p0(i64 4, ptr %10) #13
  br label %122

122:                                              ; preds = %117, %16
  %123 = load i1, ptr %5, align 1
  ret i1 %123
}

; Function Attrs: mustprogress uwtable
define noundef zeroext i1 @_ZN3url20ExtractQueryKeyValueEPKtPNS_9ComponentES3_S3_(ptr noundef %0, ptr noundef %1, ptr noundef %2, ptr noundef %3) #0 {
  %5 = alloca ptr, align 8
  %6 = alloca ptr, align 8
  %7 = alloca ptr, align 8
  %8 = alloca ptr, align 8
  store ptr %0, ptr %5, align 8, !tbaa !38
  store ptr %1, ptr %6, align 8, !tbaa !12
  store ptr %2, ptr %7, align 8, !tbaa !12
  store ptr %3, ptr %8, align 8, !tbaa !12
  %9 = load ptr, ptr %5, align 8, !tbaa !38
  %10 = load ptr, ptr %6, align 8, !tbaa !12
  %11 = load ptr, ptr %7, align 8, !tbaa !12
  %12 = load ptr, ptr %8, align 8, !tbaa !12
  %13 = call noundef zeroext i1 @_ZN3url12_GLOBAL__N_122DoExtractQueryKeyValueItEEbPKT_PNS_9ComponentES6_S6_(ptr noundef %9, ptr noundef %10, ptr noundef %11, ptr noundef %12)
  ret i1 %13
}