; Function Attrs: mustprogress nofree norecurse nosync nounwind memory(argmem: readwrite) uwtable
define noundef zeroext i1 @_ZN3url20ExtractQueryKeyValueEPKtPNS_9ComponentES3_S3_(ptr noundef readonly captures(none) %0, ptr noundef captures(none) %1, ptr noundef writeonly captures(none) %2, ptr noundef writeonly captures(none) %3) local_unnamed_addr #6 {
  %5 = getelementptr inbounds nuw i8, ptr %1, i64 4
  %6 = load i32, ptr %5, align 4, !tbaa !8
  %7 = icmp sgt i32 %6, 0
  br i1 %7, label %8, label %_ZN3url12_GLOBAL__N_122DoExtractQueryKeyValueItEEbPKT_PNS_9ComponentES6_S6_.exit

8:                                                ; preds = %4
  %9 = load i32, ptr %1, align 4, !tbaa !3
  %10 = add i32 %9, %6
  store i32 %9, ptr %2, align 4, !tbaa !3
  %11 = sext i32 %9 to i64
  %12 = sext i32 %10 to i64
  %13 = add nsw i64 %11, 1
  %smax = tail call i64 @llvm.smax.i64(i64 %13, i64 %12)
  br label %14

14:                                               ; preds = %17, %8
  %indvars.iv.i = phi i64 [ %11, %8 ], [ %indvars.iv.next.i, %17 ]
  %15 = getelementptr inbounds i16, ptr %0, i64 %indvars.iv.i
  %16 = load i16, ptr %15, align 2, !tbaa !25
  switch i16 %16, label %17 [
    i16 38, label %19
    i16 61, label %19
  ]

17:                                               ; preds = %14
  %indvars.iv.next.i = add nsw i64 %indvars.iv.i, 1
  %18 = icmp slt i64 %indvars.iv.next.i, %12
  br i1 %18, label %14, label %.critedge45.i, !llvm.loop !33

19:                                               ; preds = %14, %14
  %20 = trunc nsw i64 %indvars.iv.i to i32
  %21 = sub nsw i32 %20, %9
  %22 = getelementptr inbounds nuw i8, ptr %2, i64 4
  store i32 %21, ptr %22, align 4, !tbaa !8
  %23 = icmp eq i16 %16, 61
  %24 = zext i1 %23 to i32
  %spec.select.i = add nsw i32 %24, %20
  br label %28

.critedge45.i:                                    ; preds = %17
  %25 = trunc nsw i64 %smax to i32
  %26 = sub nsw i32 %25, %9
  %27 = getelementptr inbounds nuw i8, ptr %2, i64 4
  store i32 %26, ptr %27, align 4, !tbaa !8
  br label %28

28:                                               ; preds = %.critedge45.i, %19
  %.1.i = phi i32 [ %25, %.critedge45.i ], [ %spec.select.i, %19 ]
  store i32 %.1.i, ptr %3, align 4, !tbaa !3
  %29 = icmp slt i32 %.1.i, %10
  br i1 %29, label %.lr.ph.preheader.i, label %.critedge46.i

.lr.ph.preheader.i:                               ; preds = %28
  %30 = sext i32 %.1.i to i64
  br label %.lr.ph.i

.lr.ph.i:                                         ; preds = %33, %.lr.ph.preheader.i
  %indvars.iv58.i = phi i64 [ %30, %.lr.ph.preheader.i ], [ %indvars.iv.next59.i, %33 ]
  %31 = getelementptr inbounds i16, ptr %0, i64 %indvars.iv58.i
  %32 = load i16, ptr %31, align 2, !tbaa !25
  %.not44.i = icmp eq i16 %32, 38
  br i1 %.not44.i, label %34, label %33

33:                                               ; preds = %.lr.ph.i
  %indvars.iv.next59.i = add nsw i64 %indvars.iv58.i, 1
  %lftr.wideiv.i = trunc i64 %indvars.iv.next59.i to i32
  %exitcond.not.i = icmp eq i32 %10, %lftr.wideiv.i
  br i1 %exitcond.not.i, label %.critedge46.i, label %.lr.ph.i, !llvm.loop !34

34:                                               ; preds = %.lr.ph.i
  %35 = trunc nsw i64 %indvars.iv58.i to i32
  %36 = sub nsw i32 %35, %.1.i
  %37 = getelementptr inbounds nuw i8, ptr %3, i64 4
  store i32 %36, ptr %37, align 4, !tbaa !8
  %38 = add nsw i32 %35, 1
  br label %41

.critedge46.i:                                    ; preds = %33, %28
  %.2.lcssa.i = phi i32 [ %.1.i, %28 ], [ %10, %33 ]
  %39 = sub nsw i32 %.2.lcssa.i, %.1.i
  %40 = getelementptr inbounds nuw i8, ptr %3, i64 4
  store i32 %39, ptr %40, align 4, !tbaa !8
  br label %41

41:                                               ; preds = %.critedge46.i, %34
  %.3.i = phi i32 [ %.2.lcssa.i, %.critedge46.i ], [ %38, %34 ]
  %42 = sub nsw i32 %10, %.3.i
  %.sroa.2.0.insert.ext.i.i = zext i32 %42 to i64
  %.sroa.2.0.insert.shift.i.i = shl nuw i64 %.sroa.2.0.insert.ext.i.i, 32
  %.sroa.0.0.insert.ext.i.i = zext i32 %.3.i to i64
  %.sroa.0.0.insert.insert.i.i = or disjoint i64 %.sroa.2.0.insert.shift.i.i, %.sroa.0.0.insert.ext.i.i
  store i64 %.sroa.0.0.insert.insert.i.i, ptr %1, align 4
  br label %_ZN3url12_GLOBAL__N_122DoExtractQueryKeyValueItEEbPKT_PNS_9ComponentES6_S6_.exit

_ZN3url12_GLOBAL__N_122DoExtractQueryKeyValueItEEbPKT_PNS_9ComponentES6_S6_.exit: ; preds = %4, %41
  ret i1 %7
}